; Function Attrs: alwaysinline norecurse nounwind uwtable
define internal void @_ZN8LightGBM4GBDT12TrainOneIterEPKfS2_.omp_outlined(ptr noalias noundef readonly captures(none) %0, ptr noalias readnone captures(none) %1, ptr noundef nonnull readonly align 8 captures(none) dereferenceable(8) %2, ptr noundef readonly captures(none) %3, ptr noundef nonnull readonly align 8 captures(none) dereferenceable(8) %4, ptr noundef nonnull readonly align 8 captures(none) dereferenceable(8) %5) #25 {
  %7 = alloca i64, align 8
  %8 = alloca i64, align 8
  %9 = alloca i64, align 8
  %10 = alloca i32, align 4
  %11 = load i64, ptr %2, align 8, !tbaa !223
  %12 = icmp sgt i64 %11, 0
  br i1 %12, label %13, label %33

13:                                               ; preds = %6
  %14 = add nsw i64 %11, -1
  call void @llvm.lifetime.start.p0(i64 8, ptr nonnull %7) #23
  store i64 0, ptr %7, align 8, !tbaa !223
  call void @llvm.lifetime.start.p0(i64 8, ptr nonnull %8) #23
  store i64 %14, ptr %8, align 8, !tbaa !223
  call void @llvm.lifetime.start.p0(i64 8, ptr nonnull %9) #23
  store i64 1, ptr %9, align 8, !tbaa !223
  call void @llvm.lifetime.start.p0(i64 4, ptr nonnull %10) #23
  store i32 0, ptr %10, align 4, !tbaa !174
  %15 = load i32, ptr %0, align 4, !tbaa !174
  call void @__kmpc_for_static_init_8(ptr nonnull @1, i32 %15, i32 34, ptr nonnull %10, ptr nonnull %7, ptr nonnull %8, ptr nonnull %9, i64 1, i64 1)
  %16 = load i64, ptr %8, align 8, !tbaa !223
  %17 = call i64 @llvm.smin.i64(i64 %16, i64 %14)
  store i64 %17, ptr %8, align 8, !tbaa !223
  %18 = load i64, ptr %7, align 8, !tbaa !223
  %.not17 = icmp sgt i64 %18, %17
  br i1 %.not17, label %._crit_edge, label %.lr.ph

.lr.ph:                                           ; preds = %13
  %19 = load ptr, ptr %4, align 8, !tbaa !340
  %20 = getelementptr inbounds nuw i8, ptr %3, i64 336
  %21 = load ptr, ptr %20, align 8, !tbaa !342
  %22 = load ptr, ptr %5, align 8, !tbaa !340
  %23 = getelementptr inbounds nuw i8, ptr %3, i64 360
  %24 = load ptr, ptr %23, align 8, !tbaa !342
  br label %25

25:                                               ; preds = %.lr.ph, %25
  %.018 = phi i64 [ %18, %.lr.ph ], [ %32, %25 ]
  %26 = getelementptr inbounds float, ptr %19, i64 %.018
  %27 = load float, ptr %26, align 4, !tbaa !348
  %28 = getelementptr inbounds nuw float, ptr %21, i64 %.018
  store float %27, ptr %28, align 4, !tbaa !348
  %29 = getelementptr inbounds float, ptr %22, i64 %.018
  %30 = load float, ptr %29, align 4, !tbaa !348
  %31 = getelementptr inbounds nuw float, ptr %24, i64 %.018
  store float %30, ptr %31, align 4, !tbaa !348
  %32 = add i64 %.018, 1
  %exitcond.not = icmp eq i64 %.018, %17
  br i1 %exitcond.not, label %._crit_edge, label %25

._crit_edge:                                      ; preds = %25, %13
  call void @__kmpc_for_static_fini(ptr nonnull @1, i32 %15)
  call void @llvm.lifetime.end.p0(i64 4, ptr nonnull %10) #23
  call void @llvm.lifetime.end.p0(i64 8, ptr nonnull %9) #23
  call void @llvm.lifetime.end.p0(i64 8, ptr nonnull %8) #23
  call void @llvm.lifetime.end.p0(i64 8, ptr nonnull %7) #23
  br label %33

33:                                               ; preds = %._crit_edge, %6
  ret void
}